target datalayout = "e-m:e-p270:32:32-p271:32:32-p272:64:64-i64:64-i128:128-f80:128-n8:16:32:64-S128"
target triple = "x86_64-pc-linux-gnu"

%"class.absl::Cord" = type { %"class.absl::Cord::InlineRep" }
%"class.absl::Cord::InlineRep" = type { %"class.absl::cord_internal::InlineData" }
%"class.absl::cord_internal::InlineData" = type { %"struct.absl::cord_internal::InlineData::Rep" }
%"struct.absl::cord_internal::InlineData::Rep" = type { %union.anon }
%union.anon = type { %"struct.absl::cord_internal::InlineData::Rep::AsTree" }
%"struct.absl::cord_internal::InlineData::Rep::AsTree" = type { i64, ptr }
%"struct.absl::cord_internal::CordRep" = type { i64, %"class.absl::cord_internal::RefcountAndFlags", i8, [3 x i8] }
%"class.absl::cord_internal::RefcountAndFlags" = type { %"struct.std::atomic" }
%"struct.std::atomic" = type { %"struct.std::__atomic_base" }
%"struct.std::__atomic_base" = type { i32 }

; Function Attrs: mustprogress nounwind uwtable
define linkonce_odr dso_local noundef ptr @_ZNK4absl13cord_internal10InlineData3Rep4selfEv(ptr noundef nonnull align 8 dereferenceable(16) %0) #5 comdat align 2 {
  %2 = alloca ptr, align 8
  store ptr %0, ptr %2, align 8, !tbaa !149
  %3 = load ptr, ptr %2, align 8
  ret ptr %3
}

; Function Attrs: mustprogress uwtable
define linkonce_odr dso_local noundef i64 @_ZNK4absl13cord_internal10InlineData3Rep11inline_sizeEv(ptr noundef nonnull align 8 dereferenceable(16) %0) #4 comdat align 2 {
  %2 = alloca ptr, align 8
  store ptr %0, ptr %2, align 8, !tbaa !149
  %3 = load ptr, ptr %2, align 8
  %4 = call noundef ptr @_ZNK4absl13cord_internal10InlineData3Rep4selfEv(ptr noundef nonnull align 8 dereferenceable(16) %3)
  %5 = call noundef signext i8 @_ZNK4absl13cord_internal10InlineData3Rep3tagEv(ptr noundef nonnull align 8 dereferenceable(16) %4)
  %6 = sext i8 %5 to i64
  %7 = lshr i64 %6, 1
  ret i64 %7
}

; Function Attrs: mustprogress nounwind uwtable
define linkonce_odr dso_local noundef ptr @_ZNK4absl13cord_internal10InlineData3Rep4treeEv(ptr noundef nonnull align 8 dereferenceable(16) %0) #5 comdat align 2 {
  %2 = alloca ptr, align 8
  store ptr %0, ptr %2, align 8, !tbaa !149
  %3 = load ptr, ptr %2, align 8
  %4 = call noundef ptr @_ZNK4absl13cord_internal10InlineData3Rep4selfEv(ptr noundef nonnull align 8 dereferenceable(16) %3)
  %5 = getelementptr inbounds nuw %"struct.absl::cord_internal::InlineData::Rep", ptr %4, i32 0, i32 0
  %6 = getelementptr inbounds nuw %"struct.absl::cord_internal::InlineData::Rep::AsTree", ptr %5, i32 0, i32 1
  %7 = load ptr, ptr %6, align 8, !tbaa !58
  ret ptr %7
}

; Function Attrs: mustprogress nounwind uwtable
define linkonce_odr dso_local noundef signext i8 @_ZNK4absl13cord_internal10InlineData3Rep3tagEv(ptr noundef nonnull align 8 dereferenceable(16) %0) #5 comdat align 2 {
  %2 = alloca ptr, align 8
  store ptr %0, ptr %2, align 8, !tbaa !149
  %3 = load ptr, ptr %2, align 8
  %4 = getelementptr inbounds i8, ptr %3, i64 0
  %5 = load i8, ptr %4, align 1, !tbaa !58
  ret i8 %5
}

; Function Attrs: mustprogress uwtable
define linkonce_odr dso_local noundef i64 @_ZNK4absl13cord_internal10InlineData11inline_sizeEv(ptr noundef nonnull align 8 dereferenceable(16) %0) #4 comdat align 2 {
  %2 = alloca ptr, align 8
  store ptr %0, ptr %2, align 8, !tbaa !47
  %3 = load ptr, ptr %2, align 8
  %4 = getelementptr inbounds nuw %"class.absl::cord_internal::InlineData", ptr %3, i32 0, i32 0
  %5 = call noundef i64 @_ZNK4absl13cord_internal10InlineData3Rep11inline_sizeEv(ptr noundef nonnull align 8 dereferenceable(16) %4)
  ret i64 %5
}

; Function Attrs: mustprogress uwtable
define linkonce_odr dso_local noundef ptr @_ZNK4absl13cord_internal10InlineData7as_treeEv(ptr noundef nonnull align 8 dereferenceable(16) %0) #4 comdat align 2 {
  %2 = alloca ptr, align 8
  store ptr %0, ptr %2, align 8, !tbaa !47
  %3 = load ptr, ptr %2, align 8
  %4 = getelementptr inbounds nuw %"class.absl::cord_internal::InlineData", ptr %3, i32 0, i32 0
  %5 = call noundef ptr @_ZNK4absl13cord_internal10InlineData3Rep4treeEv(ptr noundef nonnull align 8 dereferenceable(16) %4)
  ret ptr %5
}

; Function Attrs: mustprogress nounwind uwtable
define linkonce_odr dso_local noundef zeroext i1 @_ZNK4absl13cord_internal10InlineData7is_treeEv(ptr noundef nonnull align 8 dereferenceable(16) %0) #5 comdat align 2 {
  %2 = alloca ptr, align 8
  store ptr %0, ptr %2, align 8, !tbaa !47
  %3 = load ptr, ptr %2, align 8
  %4 = getelementptr inbounds nuw %"class.absl::cord_internal::InlineData", ptr %3, i32 0, i32 0
  %5 = call noundef signext i8 @_ZNK4absl13cord_internal10InlineData3Rep3tagEv(ptr noundef nonnull align 8 dereferenceable(16) %4)
  %6 = sext i8 %5 to i32
  %7 = and i32 %6, 1
  %8 = icmp ne i32 %7, 0
  ret i1 %8
}

; Function Attrs: mustprogress uwtable
define linkonce_odr dso_local noundef i64 @_ZNK4absl4Cord9InlineRep11inline_sizeEv(ptr noundef nonnull align 8 dereferenceable(16) %0) #4 comdat align 2 {
  %2 = alloca ptr, align 8
  store ptr %0, ptr %2, align 8, !tbaa !13
  %3 = load ptr, ptr %2, align 8
  %4 = getelementptr inbounds nuw %"class.absl::Cord::InlineRep", ptr %3, i32 0, i32 0
  %5 = call noundef i64 @_ZNK4absl13cord_internal10InlineData11inline_sizeEv(ptr noundef nonnull align 8 dereferenceable(16) %4)
  ret i64 %5
}

; Function Attrs: inlinehint mustprogress uwtable
define linkonce_odr dso_local noundef ptr @_ZNK4absl4Cord9InlineRep7as_treeEv(ptr noundef nonnull align 8 dereferenceable(16) %0) #6 comdat align 2 {
  %2 = alloca ptr, align 8
  store ptr %0, ptr %2, align 8, !tbaa !13
  %3 = load ptr, ptr %2, align 8
  %4 = getelementptr inbounds nuw %"class.absl::Cord::InlineRep", ptr %3, i32 0, i32 0
  %5 = call noundef ptr @_ZNK4absl13cord_internal10InlineData7as_treeEv(ptr noundef nonnull align 8 dereferenceable(16) %4)
  ret ptr %5
}

; Function Attrs: mustprogress nounwind uwtable
define linkonce_odr dso_local noundef zeroext i1 @_ZNK4absl4Cord9InlineRep7is_treeEv(ptr noundef nonnull align 8 dereferenceable(16) %0) #5 comdat align 2 {
  %2 = alloca ptr, align 8
  store ptr %0, ptr %2, align 8, !tbaa !13
  %3 = load ptr, ptr %2, align 8
  %4 = getelementptr inbounds nuw %"class.absl::Cord::InlineRep", ptr %3, i32 0, i32 0
  %5 = call noundef zeroext i1 @_ZNK4absl13cord_internal10InlineData7is_treeEv(ptr noundef nonnull align 8 dereferenceable(16) %4)
  ret i1 %5
}

; Function Attrs: inlinehint mustprogress uwtable
define linkonce_odr dso_local noundef i64 @_ZNK4absl4Cord9InlineRep4sizeEv(ptr noundef nonnull align 8 dereferenceable(16) %0) #6 comdat align 2 {
  %2 = alloca ptr, align 8
  store ptr %0, ptr %2, align 8, !tbaa !13
  %3 = load ptr, ptr %2, align 8
  %4 = call noundef zeroext i1 @_ZNK4absl4Cord9InlineRep7is_treeEv(ptr noundef nonnull align 8 dereferenceable(16) %3)
  br i1 %4, label %5, label %9

5:                                                ; preds = %1
  %6 = call noundef ptr @_ZNK4absl4Cord9InlineRep7as_treeEv(ptr noundef nonnull align 8 dereferenceable(16) %3)
  %7 = getelementptr inbounds nuw %"struct.absl::cord_internal::CordRep", ptr %6, i32 0, i32 0
  %8 = load i64, ptr %7, align 8, !tbaa !38
  br label %11

9:                                                ; preds = %1
  %10 = call noundef i64 @_ZNK4absl4Cord9InlineRep11inline_sizeEv(ptr noundef nonnull align 8 dereferenceable(16) %3)
  br label %11

11:                                               ; preds = %9, %5
  %12 = phi i64 [ %8, %5 ], [ %10, %9 ]
  ret i64 %12
}

; Function Attrs: inlinehint mustprogress uwtable
define linkonce_odr dso_local noundef i64 @_ZNK4absl4Cord4sizeEv(ptr noundef nonnull align 8 dereferenceable(16) %0) #6 comdat align 2 {
  %2 = alloca ptr, align 8
  store ptr %0, ptr %2, align 8, !tbaa !4
  %3 = load ptr, ptr %2, align 8
  %4 = getelementptr inbounds nuw %"class.absl::Cord", ptr %3, i32 0, i32 0
  %5 = call noundef i64 @_ZNK4absl4Cord9InlineRep4sizeEv(ptr noundef nonnull align 8 dereferenceable(16) %4)
  ret i64 %5
}

; Function Attrs: inlinehint mustprogress uwtable
define linkonce_odr dso_local noundef i32 @_ZN4absl17SharedCompareImplINS_4CordEEEiRKS1_RKT_(ptr noundef nonnull align 8 dereferenceable(16) %0, ptr noundef nonnull align 8 dereferenceable(16) %1) #6 comdat {
  %3 = alloca i32, align 4
  %4 = alloca ptr, align 8
  %5 = alloca ptr, align 8
  %6 = alloca i64, align 8
  %7 = alloca i64, align 8
  %8 = alloca i32, align 4
  %9 = alloca i32, align 4
  %10 = alloca i32, align 4
  store ptr %0, ptr %4, align 8, !tbaa !4
  store ptr %1, ptr %5, align 8, !tbaa !4
  call void @llvm.lifetime.start.p0(i64 8, ptr %6) #3
  %11 = load ptr, ptr %4, align 8, !tbaa !4
  %12 = call noundef i64 @_ZNK4absl4Cord4sizeEv(ptr noundef nonnull align 8 dereferenceable(16) %11)
  store i64 %12, ptr %6, align 8, !tbaa !23
  call void @llvm.lifetime.start.p0(i64 8, ptr %7) #3
  %13 = load ptr, ptr %5, align 8, !tbaa !4
  %14 = call noundef i64 @_ZNK4absl4Cord4sizeEv(ptr noundef nonnull align 8 dereferenceable(16) %13)
  store i64 %14, ptr %7, align 8, !tbaa !23
  %15 = load i64, ptr %6, align 8, !tbaa !23
  %16 = load i64, ptr %7, align 8, !tbaa !23
  %17 = icmp eq i64 %15, %16
  br i1 %17, label %18, label %23

18:                                               ; preds = %2
  %19 = load ptr, ptr %4, align 8, !tbaa !4
  %20 = load ptr, ptr %5, align 8, !tbaa !4
  %21 = load i64, ptr %6, align 8, !tbaa !23
  %22 = call noundef i32 @_ZN4absl14GenericCompareIiNS_4CordEEET_RKS1_RKT0_m(ptr noundef nonnull align 8 dereferenceable(16) %19, ptr noundef nonnull align 8 dereferenceable(16) %20, i64 noundef %21)
  store i32 %22, ptr %3, align 4
  store i32 1, ptr %8, align 4
  br label %51

23:                                               ; preds = %2
  %24 = load i64, ptr %6, align 8, !tbaa !23
  %25 = load i64, ptr %7, align 8, !tbaa !23
  %26 = icmp ult i64 %24, %25
  br i1 %26, label %27, label %39

27:                                               ; preds = %23
  call void @llvm.lifetime.start.p0(i64 4, ptr %9) #3
  %28 = load ptr, ptr %4, align 8, !tbaa !4
  %29 = load ptr, ptr %5, align 8, !tbaa !4
  %30 = load i64, ptr %6, align 8, !tbaa !23
  %31 = call noundef i32 @_ZN4absl14GenericCompareIiNS_4CordEEET_RKS1_RKT0_m(ptr noundef nonnull align 8 dereferenceable(16) %28, ptr noundef nonnull align 8 dereferenceable(16) %29, i64 noundef %30)
  store i32 %31, ptr %9, align 4, !tbaa !78
  %32 = load i32, ptr %9, align 4, !tbaa !78
  %33 = icmp eq i32 %32, 0
  br i1 %33, label %34, label %35

34:                                               ; preds = %27
  br label %37

35:                                               ; preds = %27
  %36 = load i32, ptr %9, align 4, !tbaa !78
  br label %37

37:                                               ; preds = %35, %34
  %38 = phi i32 [ -1, %34 ], [ %36, %35 ]
  store i32 %38, ptr %3, align 4
  store i32 1, ptr %8, align 4
  call void @llvm.lifetime.end.p0(i64 4, ptr %9) #3
  br label %51

39:                                               ; preds = %23
  call void @llvm.lifetime.start.p0(i64 4, ptr %10) #3
  %40 = load ptr, ptr %4, align 8, !tbaa !4
  %41 = load ptr, ptr %5, align 8, !tbaa !4
  %42 = load i64, ptr %7, align 8, !tbaa !23
  %43 = call noundef i32 @_ZN4absl14GenericCompareIiNS_4CordEEET_RKS1_RKT0_m(ptr noundef nonnull align 8 dereferenceable(16) %40, ptr noundef nonnull align 8 dereferenceable(16) %41, i64 noundef %42)
  store i32 %43, ptr %10, align 4, !tbaa !78
  %44 = load i32, ptr %10, align 4, !tbaa !78
  %45 = icmp eq i32 %44, 0
  br i1 %45, label %46, label %47

46:                                               ; preds = %39
  br label %49

47:                                               ; preds = %39
  %48 = load i32, ptr %10, align 4, !tbaa !78
  br label %49

49:                                               ; preds = %47, %46
  %50 = phi i32 [ 1, %46 ], [ %48, %47 ]
  store i32 %50, ptr %3, align 4
  store i32 1, ptr %8, align 4
  call void @llvm.lifetime.end.p0(i64 4, ptr %10) #3
  br label %51

51:                                               ; preds = %49, %37, %18
  call void @llvm.lifetime.end.p0(i64 8, ptr %7) #3
  call void @llvm.lifetime.end.p0(i64 8, ptr %6) #3
  %52 = load i32, ptr %3, align 4
  ret i32 %52
}

; Function Attrs: mustprogress uwtable
define dso_local noundef i32 @_ZNK4absl4Cord11CompareImplERKS0_(ptr noundef nonnull align 8 dereferenceable(16) %0, ptr noundef nonnull align 8 dereferenceable(16) %1) #4 align 2 {
  %3 = alloca ptr, align 8
  %4 = alloca ptr, align 8
  store ptr %0, ptr %3, align 8, !tbaa !4
  store ptr %1, ptr %4, align 8, !tbaa !4
  %5 = load ptr, ptr %3, align 8
  %6 = load ptr, ptr %4, align 8, !tbaa !4
  %7 = call noundef i32 @_ZN4absl17SharedCompareImplINS_4CordEEEiRKS1_RKT_(ptr noundef nonnull align 8 dereferenceable(16) %5, ptr noundef nonnull align 8 dereferenceable(16) %6)
  ret i32 %7
}