; Function Attrs: mustprogress uwtable
define dso_local noundef i32 @_ZNK4absl4Cord11CompareImplERKS0_(ptr noundef nonnull align 8 dereferenceable(16) %0, ptr noundef nonnull align 8 dereferenceable(16) %1) local_unnamed_addr #3 align 2 {
  %3 = load i8, ptr %0, align 8, !tbaa !13
  %4 = and i8 %3, 1
  %.not.i.i.i = icmp eq i8 %4, 0
  br i1 %.not.i.i.i, label %9, label %5

5:                                                ; preds = %2
  %6 = getelementptr inbounds nuw i8, ptr %0, i64 8
  %7 = load ptr, ptr %6, align 8, !tbaa !13
  %8 = load i64, ptr %7, align 8, !tbaa !22
  br label %_ZNK4absl4Cord4sizeEv.exit.i

9:                                                ; preds = %2
  %10 = sext i8 %3 to i64
  %11 = lshr exact i64 %10, 1
  br label %_ZNK4absl4Cord4sizeEv.exit.i

_ZNK4absl4Cord4sizeEv.exit.i:                     ; preds = %9, %5
  %12 = phi i64 [ %8, %5 ], [ %11, %9 ]
  %13 = load i8, ptr %1, align 8, !tbaa !13
  %14 = and i8 %13, 1
  %.not.i.i21.i = icmp eq i8 %14, 0
  br i1 %.not.i.i21.i, label %19, label %15

15:                                               ; preds = %_ZNK4absl4Cord4sizeEv.exit.i
  %16 = getelementptr inbounds nuw i8, ptr %1, i64 8
  %17 = load ptr, ptr %16, align 8, !tbaa !13
  %18 = load i64, ptr %17, align 8, !tbaa !22
  br label %_ZNK4absl4Cord4sizeEv.exit22.i

19:                                               ; preds = %_ZNK4absl4Cord4sizeEv.exit.i
  %20 = sext i8 %13 to i64
  %21 = lshr exact i64 %20, 1
  br label %_ZNK4absl4Cord4sizeEv.exit22.i

_ZNK4absl4Cord4sizeEv.exit22.i:                   ; preds = %19, %15
  %22 = phi i64 [ %18, %15 ], [ %21, %19 ]
  %23 = icmp eq i64 %12, %22
  br i1 %23, label %24, label %26

24:                                               ; preds = %_ZNK4absl4Cord4sizeEv.exit22.i
  %25 = tail call noundef i32 @_ZN4absl14GenericCompareIiNS_4CordEEET_RKS1_RKT0_m(ptr noundef nonnull align 8 dereferenceable(16) %0, ptr noundef nonnull align 8 dereferenceable(16) %1, i64 noundef %12)
  br label %_ZN4absl17SharedCompareImplINS_4CordEEEiRKS1_RKT_.exit

26:                                               ; preds = %_ZNK4absl4Cord4sizeEv.exit22.i
  %27 = icmp ult i64 %12, %22
  br i1 %27, label %28, label %32

28:                                               ; preds = %26
  %29 = tail call noundef i32 @_ZN4absl14GenericCompareIiNS_4CordEEET_RKS1_RKT0_m(ptr noundef nonnull align 8 dereferenceable(16) %0, ptr noundef nonnull align 8 dereferenceable(16) %1, i64 noundef %12)
  %30 = icmp eq i32 %29, 0
  %31 = select i1 %30, i32 -1, i32 %29
  br label %_ZN4absl17SharedCompareImplINS_4CordEEEiRKS1_RKT_.exit

32:                                               ; preds = %26
  %33 = tail call noundef i32 @_ZN4absl14GenericCompareIiNS_4CordEEET_RKS1_RKT0_m(ptr noundef nonnull align 8 dereferenceable(16) %0, ptr noundef nonnull align 8 dereferenceable(16) %1, i64 noundef %22)
  %34 = tail call i32 @llvm.umax.i32(i32 %33, i32 1)
  br label %_ZN4absl17SharedCompareImplINS_4CordEEEiRKS1_RKT_.exit

_ZN4absl17SharedCompareImplINS_4CordEEEiRKS1_RKT_.exit: ; preds = %24, %28, %32
  %.0.i = phi i32 [ %25, %24 ], [ %31, %28 ], [ %34, %32 ]
  ret i32 %.0.i
}